target datalayout = "e-m:e-p270:32:32-p271:32:32-p272:64:64-i64:64-i128:128-f80:128-n8:16:32:64-S128"
target triple = "x86_64-pc-linux-gnu"

%struct.ObjectAddress = type { i32, i32, i32 }
%struct.nameData = type { [64 x i8] }
%struct.FormData_pg_index = type { i32, i32, i16, i16, i8, i8, i8, i8, i8, i8, i8, i8, i8, i8, i8, %struct.int2vector }
%struct.int2vector = type { i32, i32, i32, i32, i32, i32, [0 x i16] }
%struct.RelationData = type { %struct.RelFileLocator, ptr, i32, i32, i8, i8, i8, i8, i8, i32, i32, i32, i32, ptr, ptr, i32, %struct.LockInfoData, ptr, ptr, ptr, ptr, ptr, i8, ptr, ptr, ptr, ptr, ptr, ptr, i32, ptr, i8, ptr, ptr, i32, i8, i32, ptr, i8, ptr, ptr, ptr, ptr, ptr, ptr, ptr, i32, ptr, ptr, ptr, ptr, ptr, ptr, ptr, ptr, ptr, ptr, ptr, ptr, ptr, ptr, ptr, ptr, ptr, ptr, ptr, i32, i8, ptr }
%struct.RelFileLocator = type { i32, i32, i32 }
%struct.LockInfoData = type { %struct.LockRelId }
%struct.LockRelId = type { i32, i32 }
%struct.HeapTupleData = type { i32, %struct.ItemPointerData, i32, ptr }
%struct.ItemPointerData = type { %struct.BlockIdData, i16 }
%struct.BlockIdData = type { i16, i16 }
%struct.HeapTupleHeaderData = type { %union.anon, %struct.ItemPointerData, i16, i16, i8, [0 x i8] }
%union.anon = type { %struct.HeapTupleFields }
%struct.HeapTupleFields = type { i32, i32, %union.anon.0 }
%union.anon.0 = type { i32 }
%struct.FmgrInfo = type { ptr, i32, i16, i8, i8, i8, ptr, ptr, ptr }
%struct.FormData_pg_class = type { i32, %struct.nameData, i32, i32, i32, i32, i32, i32, i32, i32, float, i32, i32, i8, i8, i8, i8, i16, i16, i8, i8, i8, i8, i8, i8, i8, i8, i32, i32, i32 }
%struct.ScanKeyData = type { i32, i16, i16, i32, i32, %struct.FmgrInfo, i64 }
%struct.FormData_pg_inherits = type { i32, i32, i32, i8 }

@.str.1 = private unnamed_addr constant [12 x i8] c"indexcmds.c\00", align 1
@.str.60 = private unnamed_addr constant [47 x i8] c"bogus pg_inherit row: inhrelid %u inhparent %u\00", align 1
@__func__.IndexSetParentIndex = private unnamed_addr constant [20 x i8] c"IndexSetParentIndex\00", align 1
@.str.111 = private unnamed_addr constant [36 x i8] c"cache lookup failed for relation %u\00", align 1
@__func__.update_relispartition = private unnamed_addr constant [22 x i8] c"update_relispartition\00", align 1

; Function Attrs: nounwind uwtable
define internal void @update_relispartition(i32 noundef %0, i1 noundef zeroext %1) #0 {
  %3 = alloca i32, align 4
  %4 = alloca i8, align 1
  %5 = alloca ptr, align 8
  %6 = alloca ptr, align 8
  %7 = alloca %struct.ItemPointerData, align 2
  store i32 %0, ptr %3, align 4
  %8 = zext i1 %1 to i8
  store i8 %8, ptr %4, align 1
  call void @llvm.lifetime.start.p0(i64 8, ptr %5) #10
  call void @llvm.lifetime.start.p0(i64 8, ptr %6) #10
  call void @llvm.lifetime.start.p0(i64 6, ptr %7) #10
  %9 = call ptr @table_open(i32 noundef 1259, i32 noundef 3)
  store ptr %9, ptr %6, align 8
  %10 = load i32, ptr %3, align 4
  %11 = call i64 @ObjectIdGetDatum(i32 noundef %10)
  %12 = call ptr @SearchSysCacheLockedCopy1(i32 noundef 57, i64 noundef %11)
  store ptr %12, ptr %5, align 8
  %13 = load ptr, ptr %5, align 8
  %14 = icmp ne ptr %13, null
  br i1 %14, label %27, label %15

15:                                               ; preds = %2
  br label %16

16:                                               ; preds = %15
  br i1 true, label %17, label %19

17:                                               ; preds = %16
  %18 = call zeroext i1 @errstart_cold(i32 noundef 21, ptr noundef null) #11
  br i1 %18, label %21, label %24

19:                                               ; preds = %16
  %20 = call zeroext i1 @errstart(i32 noundef 21, ptr noundef null)
  br i1 %20, label %21, label %24

21:                                               ; preds = %19, %17
  %22 = load i32, ptr %3, align 4
  %23 = call i32 (ptr, ...) @errmsg_internal(ptr noundef @.str.111, i32 noundef %22)
  call void @errfinish(ptr noundef @.str.1, i32 noundef 4556, ptr noundef @__func__.update_relispartition)
  br label %24

24:                                               ; preds = %21, %19, %17
  unreachable

25:                                               ; No predecessors!
  br label %26

26:                                               ; preds = %25
  br label %27

27:                                               ; preds = %26, %2
  %28 = load ptr, ptr %5, align 8
  %29 = getelementptr inbounds nuw %struct.HeapTupleData, ptr %28, i32 0, i32 1
  call void @llvm.memcpy.p0.p0.i64(ptr align 2 %7, ptr align 4 %29, i64 6, i1 false)
  %30 = load i8, ptr %4, align 1, !range !4, !noundef !5
  %31 = trunc i8 %30 to i1
  %32 = load ptr, ptr %5, align 8
  %33 = call ptr @GETSTRUCT(ptr noundef %32)
  %34 = getelementptr inbounds nuw %struct.FormData_pg_class, ptr %33, i32 0, i32 26
  %35 = zext i1 %31 to i8
  store i8 %35, ptr %34, align 1
  %36 = load ptr, ptr %6, align 8
  %37 = load ptr, ptr %5, align 8
  call void @CatalogTupleUpdate(ptr noundef %36, ptr noundef %7, ptr noundef %37)
  %38 = load ptr, ptr %6, align 8
  call void @UnlockTuple(ptr noundef %38, ptr noundef %7, i32 noundef 7)
  %39 = load ptr, ptr %5, align 8
  call void @heap_freetuple(ptr noundef %39)
  %40 = load ptr, ptr %6, align 8
  call void @table_close(ptr noundef %40, i32 noundef 3)
  call void @llvm.lifetime.end.p0(i64 6, ptr %7) #10
  call void @llvm.lifetime.end.p0(i64 8, ptr %6) #10
  call void @llvm.lifetime.end.p0(i64 8, ptr %5) #10
  ret void
}

; Function Attrs: inlinehint nounwind uwtable
define internal ptr @GETSTRUCT(ptr noundef %0) #3 {
  %2 = alloca ptr, align 8
  store ptr %0, ptr %2, align 8
  %3 = load ptr, ptr %2, align 8
  %4 = getelementptr inbounds nuw %struct.HeapTupleData, ptr %3, i32 0, i32 3
  %5 = load ptr, ptr %4, align 8
  %6 = load ptr, ptr %2, align 8
  %7 = getelementptr inbounds nuw %struct.HeapTupleData, ptr %6, i32 0, i32 3
  %8 = load ptr, ptr %7, align 8
  %9 = getelementptr inbounds nuw %struct.HeapTupleHeaderData, ptr %8, i32 0, i32 4
  %10 = load i8, ptr %9, align 2
  %11 = zext i8 %10 to i32
  %12 = sext i32 %11 to i64
  %13 = getelementptr inbounds i8, ptr %5, i64 %12
  ret ptr %13
}

; Function Attrs: inlinehint nounwind uwtable
define internal i64 @Int32GetDatum(i32 noundef %0) #3 {
  %2 = alloca i32, align 4
  store i32 %0, ptr %2, align 4
  %3 = load i32, ptr %2, align 4
  %4 = sext i32 %3 to i64
  ret i64 %4
}

; Function Attrs: inlinehint nounwind uwtable
define internal i64 @ObjectIdGetDatum(i32 noundef %0) #3 {
  %2 = alloca i32, align 4
  store i32 %0, ptr %2, align 4
  %3 = load i32, ptr %2, align 4
  %4 = zext i32 %3 to i64
  ret i64 %4
}

; Function Attrs: nounwind uwtable
define dso_local void @IndexSetParentIndex(ptr noundef %0, i32 noundef %1) #0 {
  %3 = alloca ptr, align 8
  %4 = alloca i32, align 4
  %5 = alloca ptr, align 8
  %6 = alloca [2 x %struct.ScanKeyData], align 16
  %7 = alloca ptr, align 8
  %8 = alloca i32, align 4
  %9 = alloca ptr, align 8
  %10 = alloca i8, align 1
  %11 = alloca ptr, align 8
  %12 = alloca %struct.ObjectAddress, align 4
  %13 = alloca %struct.ObjectAddress, align 4
  %14 = alloca %struct.ObjectAddress, align 4
  store ptr %0, ptr %3, align 8
  store i32 %1, ptr %4, align 4
  call void @llvm.lifetime.start.p0(i64 8, ptr %5) #10
  call void @llvm.lifetime.start.p0(i64 144, ptr %6) #10
  call void @llvm.lifetime.start.p0(i64 8, ptr %7) #10
  call void @llvm.lifetime.start.p0(i64 4, ptr %8) #10
  %15 = load ptr, ptr %3, align 8
  %16 = getelementptr inbounds nuw %struct.RelationData, ptr %15, i32 0, i32 15
  %17 = load i32, ptr %16, align 8
  store i32 %17, ptr %8, align 4
  call void @llvm.lifetime.start.p0(i64 8, ptr %9) #10
  call void @llvm.lifetime.start.p0(i64 1, ptr %10) #10
  %18 = call ptr @relation_open(i32 noundef 2611, i32 noundef 3)
  store ptr %18, ptr %5, align 8
  %19 = getelementptr inbounds [2 x %struct.ScanKeyData], ptr %6, i64 0, i64 0
  %20 = load i32, ptr %8, align 4
  %21 = call i64 @ObjectIdGetDatum(i32 noundef %20)
  call void @ScanKeyInit(ptr noundef %19, i16 noundef signext 1, i16 noundef zeroext 3, i32 noundef 184, i64 noundef %21)
  %22 = getelementptr inbounds [2 x %struct.ScanKeyData], ptr %6, i64 0, i64 1
  %23 = call i64 @Int32GetDatum(i32 noundef 1)
  call void @ScanKeyInit(ptr noundef %22, i16 noundef signext 3, i16 noundef zeroext 3, i32 noundef 65, i64 noundef %23)
  %24 = load ptr, ptr %5, align 8
  %25 = getelementptr inbounds [2 x %struct.ScanKeyData], ptr %6, i64 0, i64 0
  %26 = call ptr @systable_beginscan(ptr noundef %24, i32 noundef 2680, i1 noundef zeroext true, ptr noundef null, i32 noundef 2, ptr noundef %25)
  store ptr %26, ptr %7, align 8
  %27 = load ptr, ptr %7, align 8
  %28 = call ptr @systable_getnext(ptr noundef %27)
  store ptr %28, ptr %9, align 8
  %29 = load ptr, ptr %9, align 8
  %30 = icmp ne ptr %29, null
  br i1 %30, label %39, label %31

31:                                               ; preds = %2
  %32 = load i32, ptr %4, align 4
  %33 = icmp eq i32 %32, 0
  br i1 %33, label %34, label %35

34:                                               ; preds = %31
  store i8 0, ptr %10, align 1
  br label %38

35:                                               ; preds = %31
  %36 = load i32, ptr %8, align 4
  %37 = load i32, ptr %4, align 4
  call void @StoreSingleInheritance(i32 noundef %36, i32 noundef %37, i32 noundef 1)
  store i8 1, ptr %10, align 1
  br label %38

38:                                               ; preds = %35, %34
  br label %73

39:                                               ; preds = %2
  call void @llvm.lifetime.start.p0(i64 8, ptr %11) #10
  %40 = load ptr, ptr %9, align 8
  %41 = call ptr @GETSTRUCT(ptr noundef %40)
  store ptr %41, ptr %11, align 8
  %42 = load i32, ptr %4, align 4
  %43 = icmp eq i32 %42, 0
  br i1 %43, label %44, label %48

44:                                               ; preds = %39
  %45 = load ptr, ptr %5, align 8
  %46 = load ptr, ptr %9, align 8
  %47 = getelementptr inbounds nuw %struct.HeapTupleData, ptr %46, i32 0, i32 1
  call void @CatalogTupleDelete(ptr noundef %45, ptr noundef %47)
  store i8 1, ptr %10, align 1
  br label %72

48:                                               ; preds = %39
  %49 = load ptr, ptr %11, align 8
  %50 = getelementptr inbounds nuw %struct.FormData_pg_inherits, ptr %49, i32 0, i32 1
  %51 = load i32, ptr %50, align 4
  %52 = load i32, ptr %4, align 4
  %53 = icmp ne i32 %51, %52
  br i1 %53, label %54, label %71

54:                                               ; preds = %48
  br label %55

55:                                               ; preds = %54
  br i1 true, label %56, label %58

56:                                               ; preds = %55
  %57 = call zeroext i1 @errstart_cold(i32 noundef 21, ptr noundef null) #11
  br i1 %57, label %60, label %68

58:                                               ; preds = %55
  %59 = call zeroext i1 @errstart(i32 noundef 21, ptr noundef null)
  br i1 %59, label %60, label %68

60:                                               ; preds = %58, %56
  %61 = load ptr, ptr %11, align 8
  %62 = getelementptr inbounds nuw %struct.FormData_pg_inherits, ptr %61, i32 0, i32 0
  %63 = load i32, ptr %62, align 4
  %64 = load ptr, ptr %11, align 8
  %65 = getelementptr inbounds nuw %struct.FormData_pg_inherits, ptr %64, i32 0, i32 1
  %66 = load i32, ptr %65, align 4
  %67 = call i32 (ptr, ...) @errmsg_internal(ptr noundef @.str.60, i32 noundef %63, i32 noundef %66)
  call void @errfinish(ptr noundef @.str.1, i32 noundef 4483, ptr noundef @__func__.IndexSetParentIndex)
  br label %68

68:                                               ; preds = %60, %58, %56
  unreachable

69:                                               ; No predecessors!
  br label %70

70:                                               ; preds = %69
  br label %71

71:                                               ; preds = %70, %48
  store i8 0, ptr %10, align 1
  br label %72

72:                                               ; preds = %71, %44
  call void @llvm.lifetime.end.p0(i64 8, ptr %11) #10
  br label %73

73:                                               ; preds = %72, %38
  %74 = load ptr, ptr %7, align 8
  call void @systable_endscan(ptr noundef %74)
  %75 = load ptr, ptr %5, align 8
  call void @relation_close(ptr noundef %75, i32 noundef 3)
  %76 = load i32, ptr %4, align 4
  %77 = icmp ne i32 %76, 0
  br i1 %77, label %78, label %81

78:                                               ; preds = %73
  %79 = load i32, ptr %4, align 4
  call void @LockRelationOid(i32 noundef %79, i32 noundef 4)
  %80 = load i32, ptr %4, align 4
  call void @SetRelationHasSubclass(i32 noundef %80, i1 noundef zeroext true)
  br label %81

81:                                               ; preds = %78, %73
  %82 = load i32, ptr %8, align 4
  %83 = load i32, ptr %4, align 4
  %84 = icmp ne i32 %83, 0
  call void @update_relispartition(i32 noundef %82, i1 noundef zeroext %84)
  %85 = load i8, ptr %10, align 1, !range !4, !noundef !5
  %86 = trunc i8 %85 to i1
  br i1 %86, label %87, label %122

87:                                               ; preds = %81
  %88 = load i32, ptr %4, align 4
  %89 = icmp ne i32 %88, 0
  br i1 %89, label %90, label %116

90:                                               ; preds = %87
  call void @llvm.lifetime.start.p0(i64 12, ptr %12) #10
  call void @llvm.lifetime.start.p0(i64 12, ptr %13) #10
  call void @llvm.lifetime.start.p0(i64 12, ptr %14) #10
  br label %91

91:                                               ; preds = %90
  %92 = getelementptr inbounds nuw %struct.ObjectAddress, ptr %12, i32 0, i32 0
  store i32 1259, ptr %92, align 4
  %93 = load i32, ptr %8, align 4
  %94 = getelementptr inbounds nuw %struct.ObjectAddress, ptr %12, i32 0, i32 1
  store i32 %93, ptr %94, align 4
  %95 = getelementptr inbounds nuw %struct.ObjectAddress, ptr %12, i32 0, i32 2
  store i32 0, ptr %95, align 4
  br label %96

96:                                               ; preds = %91
  br label %97

97:                                               ; preds = %96
  br label %98

98:                                               ; preds = %97
  %99 = getelementptr inbounds nuw %struct.ObjectAddress, ptr %13, i32 0, i32 0
  store i32 1259, ptr %99, align 4
  %100 = load i32, ptr %4, align 4
  %101 = getelementptr inbounds nuw %struct.ObjectAddress, ptr %13, i32 0, i32 1
  store i32 %100, ptr %101, align 4
  %102 = getelementptr inbounds nuw %struct.ObjectAddress, ptr %13, i32 0, i32 2
  store i32 0, ptr %102, align 4
  br label %103

103:                                              ; preds = %98
  br label %104

104:                                              ; preds = %103
  br label %105

105:                                              ; preds = %104
  %106 = getelementptr inbounds nuw %struct.ObjectAddress, ptr %14, i32 0, i32 0
  store i32 1259, ptr %106, align 4
  %107 = load ptr, ptr %3, align 8
  %108 = getelementptr inbounds nuw %struct.RelationData, ptr %107, i32 0, i32 48
  %109 = load ptr, ptr %108, align 8
  %110 = getelementptr inbounds nuw %struct.FormData_pg_index, ptr %109, i32 0, i32 1
  %111 = load i32, ptr %110, align 4
  %112 = getelementptr inbounds nuw %struct.ObjectAddress, ptr %14, i32 0, i32 1
  store i32 %111, ptr %112, align 4
  %113 = getelementptr inbounds nuw %struct.ObjectAddress, ptr %14, i32 0, i32 2
  store i32 0, ptr %113, align 4
  br label %114

114:                                              ; preds = %105
  br label %115

115:                                              ; preds = %114
  call void @recordDependencyOn(ptr noundef %12, ptr noundef %13, i32 noundef 80)
  call void @recordDependencyOn(ptr noundef %12, ptr noundef %14, i32 noundef 83)
  call void @llvm.lifetime.end.p0(i64 12, ptr %14) #10
  call void @llvm.lifetime.end.p0(i64 12, ptr %13) #10
  call void @llvm.lifetime.end.p0(i64 12, ptr %12) #10
  br label %121

116:                                              ; preds = %87
  %117 = load i32, ptr %8, align 4
  %118 = call i64 @deleteDependencyRecordsForClass(i32 noundef 1259, i32 noundef %117, i32 noundef 1259, i8 noundef signext 80)
  %119 = load i32, ptr %8, align 4
  %120 = call i64 @deleteDependencyRecordsForClass(i32 noundef 1259, i32 noundef %119, i32 noundef 1259, i8 noundef signext 83)
  br label %121

121:                                              ; preds = %116, %115
  call void @CommandCounterIncrement()
  br label %122

122:                                              ; preds = %121, %81
  call void @llvm.lifetime.end.p0(i64 1, ptr %10) #10
  call void @llvm.lifetime.end.p0(i64 8, ptr %9) #10
  call void @llvm.lifetime.end.p0(i64 4, ptr %8) #10
  call void @llvm.lifetime.end.p0(i64 8, ptr %7) #10
  call void @llvm.lifetime.end.p0(i64 144, ptr %6) #10
  call void @llvm.lifetime.end.p0(i64 8, ptr %5) #10
  ret void
}