; Function Attrs: nounwind uwtable
define dso_local void @IndexSetParentIndex(ptr noundef readonly captures(none) %0, i32 noundef %1) local_unnamed_addr #0 {
  %3 = alloca %struct.ItemPointerData, align 2
  %4 = alloca [2 x %struct.ScanKeyData], align 16
  %5 = alloca %struct.ObjectAddress, align 4
  %6 = alloca %struct.ObjectAddress, align 4
  %7 = alloca %struct.ObjectAddress, align 4
  call void @llvm.lifetime.start.p0(i64 144, ptr nonnull %4) #11
  %8 = getelementptr inbounds nuw i8, ptr %0, i64 72
  %9 = load i32, ptr %8, align 8
  %10 = tail call ptr @relation_open(i32 noundef 2611, i32 noundef 3) #11
  %11 = zext i32 %9 to i64
  call void @ScanKeyInit(ptr noundef nonnull %4, i16 noundef signext 1, i16 noundef zeroext 3, i32 noundef 184, i64 noundef %11) #11
  %12 = getelementptr inbounds nuw i8, ptr %4, i64 72
  call void @ScanKeyInit(ptr noundef nonnull %12, i16 noundef signext 3, i16 noundef zeroext 3, i32 noundef 65, i64 noundef 1) #11
  %13 = call ptr @systable_beginscan(ptr noundef %10, i32 noundef 2680, i1 noundef zeroext true, ptr noundef null, i32 noundef 2, ptr noundef nonnull %4) #11
  %14 = call ptr @systable_getnext(ptr noundef %13) #11
  %.not = icmp eq ptr %14, null
  br i1 %.not, label %15, label %18

15:                                               ; preds = %2
  %16 = icmp eq i32 %1, 0
  br i1 %16, label %35, label %17

17:                                               ; preds = %15
  call void @StoreSingleInheritance(i32 noundef %9, i32 noundef %1, i32 noundef 1) #11
  br label %35

18:                                               ; preds = %2
  %19 = getelementptr i8, ptr %14, i64 16
  %.val = load ptr, ptr %19, align 8
  %20 = getelementptr inbounds nuw i8, ptr %.val, i64 22
  %21 = load i8, ptr %20, align 2
  %22 = zext i8 %21 to i64
  %23 = getelementptr inbounds nuw i8, ptr %.val, i64 %22
  %24 = icmp eq i32 %1, 0
  br i1 %24, label %25, label %27

25:                                               ; preds = %18
  %26 = getelementptr inbounds nuw i8, ptr %14, i64 4
  call void @CatalogTupleDelete(ptr noundef %10, ptr noundef nonnull %26) #11
  br label %35

27:                                               ; preds = %18
  %28 = getelementptr inbounds nuw i8, ptr %23, i64 4
  %29 = load i32, ptr %28, align 4
  %.not32 = icmp eq i32 %29, %1
  br i1 %.not32, label %35, label %30

30:                                               ; preds = %27
  %31 = call zeroext i1 @errstart_cold(i32 noundef 21, ptr noundef null) #12
  call void @llvm.assume(i1 %31)
  %32 = load i32, ptr %23, align 4
  %33 = load i32, ptr %28, align 4
  %34 = call i32 (ptr, ...) @errmsg_internal(ptr noundef nonnull @.str.60, i32 noundef %32, i32 noundef %33) #11
  call void @errfinish(ptr noundef nonnull @.str.1, i32 noundef 4483, ptr noundef nonnull @__func__.IndexSetParentIndex) #11
  unreachable

35:                                               ; preds = %25, %27, %15, %17
  %.0 = phi i1 [ true, %17 ], [ false, %15 ], [ false, %27 ], [ true, %25 ]
  call void @systable_endscan(ptr noundef %13) #11
  call void @relation_close(ptr noundef %10, i32 noundef 3) #11
  %36 = icmp ne i32 %1, 0
  br i1 %36, label %37, label %38

37:                                               ; preds = %35
  call void @LockRelationOid(i32 noundef %1, i32 noundef 4) #11
  call void @SetRelationHasSubclass(i32 noundef %1, i1 noundef zeroext true) #11
  br label %38

38:                                               ; preds = %37, %35
  call void @llvm.lifetime.start.p0(i64 6, ptr nonnull %3) #11
  %39 = call ptr @table_open(i32 noundef 1259, i32 noundef 3) #11
  %40 = call ptr @SearchSysCacheLockedCopy1(i32 noundef 57, i64 noundef %11) #11
  %.not.i = icmp eq ptr %40, null
  br i1 %.not.i, label %41, label %update_relispartition.exit

41:                                               ; preds = %38
  %42 = call zeroext i1 @errstart_cold(i32 noundef 21, ptr noundef null) #12
  call void @llvm.assume(i1 %42)
  %43 = call i32 (ptr, ...) @errmsg_internal(ptr noundef nonnull @.str.111, i32 noundef %9) #11
  call void @errfinish(ptr noundef nonnull @.str.1, i32 noundef 4556, ptr noundef nonnull @__func__.update_relispartition) #11
  unreachable

update_relispartition.exit:                       ; preds = %38
  %44 = zext i1 %36 to i8
  %45 = getelementptr inbounds nuw i8, ptr %40, i64 4
  call void @llvm.memcpy.p0.p0.i64(ptr noundef nonnull align 2 dereferenceable(6) %3, ptr noundef nonnull align 4 dereferenceable(6) %45, i64 6, i1 false)
  %46 = getelementptr i8, ptr %40, i64 16
  %.val.i = load ptr, ptr %46, align 8
  %47 = getelementptr inbounds nuw i8, ptr %.val.i, i64 22
  %48 = load i8, ptr %47, align 2
  %49 = zext i8 %48 to i64
  %50 = getelementptr inbounds nuw i8, ptr %.val.i, i64 %49
  %51 = getelementptr inbounds nuw i8, ptr %50, i64 127
  store i8 %44, ptr %51, align 1
  call void @CatalogTupleUpdate(ptr noundef %39, ptr noundef nonnull %3, ptr noundef nonnull %40) #11
  call void @UnlockTuple(ptr noundef %39, ptr noundef nonnull %3, i32 noundef 7) #11
  call void @heap_freetuple(ptr noundef nonnull %40) #11
  call void @table_close(ptr noundef %39, i32 noundef 3) #11
  call void @llvm.lifetime.end.p0(i64 6, ptr nonnull %3) #11
  br i1 %.0, label %52, label %68

52:                                               ; preds = %update_relispartition.exit
  br i1 %36, label %53, label %64

53:                                               ; preds = %52
  call void @llvm.lifetime.start.p0(i64 12, ptr nonnull %5) #11
  call void @llvm.lifetime.start.p0(i64 12, ptr nonnull %6) #11
  call void @llvm.lifetime.start.p0(i64 12, ptr nonnull %7) #11
  store i32 1259, ptr %5, align 4
  %54 = getelementptr inbounds nuw i8, ptr %5, i64 4
  store i32 %9, ptr %54, align 4
  %55 = getelementptr inbounds nuw i8, ptr %5, i64 8
  store i32 0, ptr %55, align 4
  store i32 1259, ptr %6, align 4
  %56 = getelementptr inbounds nuw i8, ptr %6, i64 4
  store i32 %1, ptr %56, align 4
  %57 = getelementptr inbounds nuw i8, ptr %6, i64 8
  store i32 0, ptr %57, align 4
  store i32 1259, ptr %7, align 4
  %58 = getelementptr inbounds nuw i8, ptr %0, i64 328
  %59 = load ptr, ptr %58, align 8
  %60 = getelementptr inbounds nuw i8, ptr %59, i64 4
  %61 = load i32, ptr %60, align 4
  %62 = getelementptr inbounds nuw i8, ptr %7, i64 4
  store i32 %61, ptr %62, align 4
  %63 = getelementptr inbounds nuw i8, ptr %7, i64 8
  store i32 0, ptr %63, align 4
  call void @recordDependencyOn(ptr noundef nonnull %5, ptr noundef nonnull %6, i32 noundef 80) #11
  call void @recordDependencyOn(ptr noundef nonnull %5, ptr noundef nonnull %7, i32 noundef 83) #11
  call void @llvm.lifetime.end.p0(i64 12, ptr nonnull %7) #11
  call void @llvm.lifetime.end.p0(i64 12, ptr nonnull %6) #11
  call void @llvm.lifetime.end.p0(i64 12, ptr nonnull %5) #11
  br label %67

64:                                               ; preds = %52
  %65 = call i64 @deleteDependencyRecordsForClass(i32 noundef 1259, i32 noundef %9, i32 noundef 1259, i8 noundef signext 80) #11
  %66 = call i64 @deleteDependencyRecordsForClass(i32 noundef 1259, i32 noundef %9, i32 noundef 1259, i8 noundef signext 83) #11
  br label %67

67:                                               ; preds = %64, %53
  call void @CommandCounterIncrement() #11
  br label %68

68:                                               ; preds = %67, %update_relispartition.exit
  call void @llvm.lifetime.end.p0(i64 144, ptr nonnull %4) #11
  ret void
}